(lp0
(lp1
S'LongName'
p2
aI16900
aa(lp3
S'Jeremy'
p4
aI10200
aa(lp5
S'Justin'
p6
aI10200
aa(lp7
S'Ramon'
p8
aI10200
aa(lp9
S'Swiggity'
p10
aI4650
aa(lp11
S'Will'
p12
aI2450
aa(lp13
S'ad'
p14
aI1825
aa(lp15
S'Pylot'
p16
aI500
aa(lp17
S'R2D2'
p18
aI400
aa(lp19
S'Player3'
p20
aI150
aa(lp21
S'Player2'
p22
aI100
aa(lp23
S'Player1'
p24
aI50
aa(lp25
S'Justin'
p26
aI7275
aa.